; Function Attrs: nounwind uwtable
define ptr @l_Std_Queue_filterM___rarg___lambda__3(ptr noundef %0, ptr noundef %1, ptr noundef %2, ptr noundef %3, ptr noundef %4, ptr noundef %5, ptr noundef %6) #1 {
  %8 = getelementptr inbounds nuw i8, ptr %0, i64 8
  %9 = load ptr, ptr %8, align 8, !tbaa !4
  %10 = ptrtoint ptr %9 to i64
  %11 = and i64 %10, 1
  %.not = icmp eq i64 %11, 0
  br i1 %.not, label %12, label %lean_inc.exit25

12:                                               ; preds = %7
  %.val.i = load i32, ptr %9, align 4, !tbaa !8
  %13 = icmp sgt i32 %.val.i, 0
  br i1 %13, label %14, label %16, !prof !13

14:                                               ; preds = %12
  %15 = add nuw i32 %.val.i, 1
  store i32 %15, ptr %9, align 4, !tbaa !8
  br label %lean_inc.exit25

16:                                               ; preds = %12
  %.not.i26 = icmp eq i32 %.val.i, 0
  br i1 %.not.i26, label %lean_inc.exit25, label %17

17:                                               ; preds = %16
  tail call void @lean_inc_ref_cold(ptr noundef nonnull %9) #4
  br label %lean_inc.exit25

lean_inc.exit25:                                  ; preds = %17, %16, %14, %7
  %18 = ptrtoint ptr %0 to i64
  %19 = and i64 %18, 1
  %.not36 = icmp eq i64 %19, 0
  br i1 %.not36, label %20, label %lean_dec.exit

20:                                               ; preds = %lean_inc.exit25
  %21 = load i32, ptr %0, align 4, !tbaa !8
  %22 = icmp sgt i32 %21, 1
  br i1 %22, label %23, label %25, !prof !13

23:                                               ; preds = %20
  %24 = add nsw i32 %21, -1
  store i32 %24, ptr %0, align 4, !tbaa !8
  br label %lean_dec.exit

25:                                               ; preds = %20
  %.not.i = icmp eq i32 %21, 0
  br i1 %.not.i, label %lean_dec.exit, label %26

26:                                               ; preds = %25
  tail call void @lean_dec_ref_cold(ptr noundef nonnull %0) #4
  br label %lean_dec.exit

lean_dec.exit:                                    ; preds = %26, %25, %23, %lean_inc.exit25
  %27 = ptrtoint ptr %3 to i64
  %28 = and i64 %27, 1
  %.not37 = icmp eq i64 %28, 0
  br i1 %.not37, label %29, label %lean_inc.exit24

29:                                               ; preds = %lean_dec.exit
  %.val.i27 = load i32, ptr %3, align 4, !tbaa !8
  %30 = icmp sgt i32 %.val.i27, 0
  br i1 %30, label %31, label %33, !prof !13

31:                                               ; preds = %29
  %32 = add nuw i32 %.val.i27, 1
  store i32 %32, ptr %3, align 4, !tbaa !8
  br label %lean_inc.exit24

33:                                               ; preds = %29
  %.not.i28 = icmp eq i32 %.val.i27, 0
  br i1 %.not.i28, label %lean_inc.exit24, label %34

34:                                               ; preds = %33
  tail call void @lean_inc_ref_cold(ptr noundef nonnull %3) #4
  br label %lean_inc.exit24

lean_inc.exit24:                                  ; preds = %34, %33, %31, %lean_dec.exit
  %35 = ptrtoint ptr %1 to i64
  %36 = and i64 %35, 1
  %.not38 = icmp eq i64 %36, 0
  br i1 %.not38, label %37, label %lean_inc.exit23

37:                                               ; preds = %lean_inc.exit24
  %.val.i30 = load i32, ptr %1, align 4, !tbaa !8
  %38 = icmp sgt i32 %.val.i30, 0
  br i1 %38, label %39, label %41, !prof !13

39:                                               ; preds = %37
  %40 = add nuw i32 %.val.i30, 1
  store i32 %40, ptr %1, align 4, !tbaa !8
  br label %lean_inc.exit23

41:                                               ; preds = %37
  %.not.i31 = icmp eq i32 %.val.i30, 0
  br i1 %.not.i31, label %lean_inc.exit23, label %42

42:                                               ; preds = %41
  tail call void @lean_inc_ref_cold(ptr noundef nonnull %1) #4
  br label %lean_inc.exit23

lean_inc.exit23:                                  ; preds = %42, %41, %39, %lean_inc.exit24
  %43 = tail call ptr @l_List_filterAuxM___rarg(ptr noundef %1, ptr noundef nonnull inttoptr (i64 1 to ptr), ptr noundef %2, ptr noundef %9, ptr noundef %3) #4
  %44 = ptrtoint ptr %4 to i64
  %45 = and i64 %44, 1
  %.not39 = icmp eq i64 %45, 0
  br i1 %.not39, label %46, label %lean_inc.exit

46:                                               ; preds = %lean_inc.exit23
  %.val.i33 = load i32, ptr %4, align 4, !tbaa !8
  %47 = icmp sgt i32 %.val.i33, 0
  br i1 %47, label %48, label %50, !prof !13

48:                                               ; preds = %46
  %49 = add nuw i32 %.val.i33, 1
  store i32 %49, ptr %4, align 4, !tbaa !8
  br label %lean_inc.exit

50:                                               ; preds = %46
  %.not.i34 = icmp eq i32 %.val.i33, 0
  br i1 %.not.i34, label %lean_inc.exit, label %51

51:                                               ; preds = %50
  tail call void @lean_inc_ref_cold(ptr noundef nonnull %4) #4
  br label %lean_inc.exit

lean_inc.exit:                                    ; preds = %51, %50, %48, %lean_inc.exit23
  %52 = tail call ptr @lean_apply_4(ptr noundef %4, ptr noundef nonnull inttoptr (i64 1 to ptr), ptr noundef nonnull inttoptr (i64 1 to ptr), ptr noundef %43, ptr noundef %5) #4
  tail call void @lean_inc_heartbeat() #4
  %53 = tail call noalias ptr @mi_malloc_small(i64 noundef 48) #4
  %54 = icmp eq ptr %53, null
  br i1 %54, label %55, label %lean_alloc_closure.exit

55:                                               ; preds = %lean_inc.exit
  tail call void @lean_internal_panic_out_of_memory() #5
  unreachable

lean_alloc_closure.exit:                          ; preds = %lean_inc.exit
  %56 = getelementptr inbounds nuw i8, ptr %53, i64 4
  store i32 1, ptr %53, align 4, !tbaa !8
  store i32 -184549328, ptr %56, align 4
  %57 = getelementptr inbounds nuw i8, ptr %53, i64 8
  store ptr @l_Std_Queue_filterM___rarg___lambda__2, ptr %57, align 8, !tbaa !4
  %58 = getelementptr inbounds nuw i8, ptr %53, i64 16
  store i16 4, ptr %58, align 8, !tbaa !11
  %59 = getelementptr inbounds nuw i8, ptr %53, i64 18
  store i16 3, ptr %59, align 2, !tbaa !11
  %60 = getelementptr inbounds nuw i8, ptr %53, i64 24
  store ptr %6, ptr %60, align 8, !tbaa !4
  %61 = getelementptr inbounds nuw i8, ptr %53, i64 32
  store ptr %1, ptr %61, align 8, !tbaa !4
  %62 = getelementptr inbounds nuw i8, ptr %53, i64 40
  store ptr %3, ptr %62, align 8, !tbaa !4
  %63 = tail call ptr @lean_apply_4(ptr noundef %4, ptr noundef nonnull inttoptr (i64 1 to ptr), ptr noundef nonnull inttoptr (i64 1 to ptr), ptr noundef %52, ptr noundef nonnull %53) #4
  ret ptr %63
}